(dp1
S'tag'
p2
(dp3
S'type'
p4
S'reference value'
p5
sS'sortable'
p6
I3
sS'sql'
p7
S'INT, INDEX tag__idx (tag), FOREIGN KEY (tag) REFERENCES value(id) ON DELETE CASCADE'
p8
ssS'contact_part'
p9
(dp10
g4
S'reference contact_part'
p11
sg6
I2
sg7
S'INT, INDEX contact_part__idx (contact_part), FOREIGN KEY (contact_part) REFERENCES contact_part(id) ON DELETE CASCADE'
p12
ssS'id'
p13
(dp14
g4
g13
sg6
I1
sg7
S'INT AUTO_INCREMENT NOT NULL'
p15
ss.