(dp1
S'role'
p2
(dp3
S'length'
p4
I512
sS'unique'
p5
I00
sS'sortable'
p6
I2
sS'sql'
p7
S'VARCHAR(512)'
p8
sS'notnull'
p9
I00
sS'type'
p10
S'string'
p11
ssS'id'
p12
(dp13
S'sortable'
p14
I1
sS'type'
p15
S'id'
p16
sS'sql'
p17
S'INT AUTO_INCREMENT NOT NULL'
p18
ssS'description'
p19
(dp20
g14
I3
sg15
S'text'
p21
sg17
S'LONGTEXT'
p22
ss.