(dp1
S'story'
p2
(dp3
S'type'
p4
S'text'
p5
sS'sortable'
p6
I4
sS'sql'
p7
S'TEXT NOT NULL'
p8
ssS'contact'
p9
(dp10
g4
S'reference contact'
p11
sg6
I2
sg7
S'INTEGER REFERENCES contact(id) ON DELETE CASCADE'
p12
ssS'id'
p13
(dp14
g4
g13
sg6
I1
sg7
S'INTEGER PRIMARY KEY AUTOINCREMENT'
p15
ssS'indirect'
p16
(dp17
g4
S'boolean'
p18
sg6
I5
sg7
S'CHAR(1)'
p19
ssS'subject'
p20
(dp21
g4
S'reference value'
p22
sg6
I3
sg7
S'INTEGER REFERENCES value(id) ON DELETE CASCADE'
p23
ss.