(dp1
S'country_lang2'
p2
(dp3
S'type'
p4
S'string'
p5
sS'sortable'
p6
I4
sS'sql'
p7
S'VARCHAR(255)'
p8
ssS'country_lang3'
p9
(dp10
g4
g5
sg6
I5
sg7
S'VARCHAR(255)'
p11
ssS'country_lang1'
p12
(dp13
g4
g5
sg6
I3
sg7
S'VARCHAR(255)'
p14
ssS'id'
p15
(dp16
g4
g15
sg6
I1
sg7
S'INT AUTO_INCREMENT NOT NULL'
p17
ssS'continent'
p18
(dp19
g4
g5
sg6
I2
sg7
S'VARCHAR(255) NOT NULL'
p20
ss.